target datalayout = "e-m:e-p270:32:32-p271:32:32-p272:64:64-i64:64-i128:128-f80:128-n8:16:32:64-S128"
target triple = "x86_64-pc-linux-gnu"

%struct.SDL_AudioDriver = type { ptr, ptr, %struct.SDL_AudioDriverImpl, ptr, ptr, ptr, i32, i32, %struct.SDL_PendingAudioDeviceEvent, ptr, %struct.SDL_AtomicInt, %struct.SDL_AtomicInt, %struct.SDL_AtomicInt }
%struct.SDL_AudioDriverImpl = type { ptr, ptr, ptr, ptr, ptr, ptr, ptr, ptr, ptr, ptr, ptr, ptr, ptr, ptr, i8, i8, i8, i8 }
%struct.SDL_PendingAudioDeviceEvent = type { i32, i32, ptr }
%struct.SDL_AtomicInt = type { i32 }
%struct.SDL_AudioSpec = type { i32, i32, i32 }
%struct.SDL_AudioDevice = type { ptr, ptr, %struct.SDL_AtomicInt, ptr, ptr, ptr, ptr, ptr, ptr, ptr, i32, ptr, %struct.SDL_AudioSpec, i32, ptr, %struct.SDL_AudioSpec, i32, i32, %struct.SDL_AtomicInt, %struct.SDL_AtomicInt, i8, i8, ptr, ptr, ptr, i32, ptr, i8, ptr, ptr }
%struct.SDL_LogicalAudioDevice = type { i32, ptr, %struct.SDL_AtomicInt, float, ptr, i8, i8, ptr, ptr, ptr, ptr, ptr, ptr, ptr }

@current_audio = internal global %struct.SDL_AudioDriver zeroinitializer, align 8
@.str.10 = private unnamed_addr constant [35 x i8] c"Audio subsystem is not initialized\00", align 1
@.str.12 = private unnamed_addr constant [33 x i8] c"Invalid audio device instance ID\00", align 1

; Function Attrs: nounwind uwtable
define hidden void @UnrefPhysicalAudioDevice(ptr noundef %0) #0 {
  %2 = alloca ptr, align 8
  store ptr %0, ptr %2, align 8
  %3 = load ptr, ptr %2, align 8
  %4 = getelementptr inbounds nuw %struct.SDL_AudioDevice, ptr %3, i32 0, i32 2
  %5 = call i32 @SDL_AddAtomicInt_REAL(ptr noundef %4, i32 noundef -1)
  %6 = icmp eq i32 %5, 1
  br i1 %6, label %7, label %26

7:                                                ; preds = %1
  %8 = load ptr, ptr getelementptr inbounds nuw (%struct.SDL_AudioDriver, ptr @current_audio, i32 0, i32 3), align 8
  call void @SDL_LockRWLockForWriting_REAL(ptr noundef %8)
  %9 = load ptr, ptr getelementptr inbounds nuw (%struct.SDL_AudioDriver, ptr @current_audio, i32 0, i32 4), align 8
  %10 = load ptr, ptr %2, align 8
  %11 = getelementptr inbounds nuw %struct.SDL_AudioDevice, ptr %10, i32 0, i32 10
  %12 = load i32, ptr %11, align 8
  %13 = zext i32 %12 to i64
  %14 = inttoptr i64 %13 to ptr
  %15 = call zeroext i1 @SDL_RemoveFromHashTable(ptr noundef %9, ptr noundef %14)
  br i1 %15, label %16, label %23

16:                                               ; preds = %7
  %17 = load ptr, ptr %2, align 8
  %18 = getelementptr inbounds nuw %struct.SDL_AudioDevice, ptr %17, i32 0, i32 20
  %19 = load i8, ptr %18, align 4, !range !5, !noundef !6
  %20 = trunc i8 %19 to i1
  %21 = select i1 %20, ptr getelementptr inbounds nuw (%struct.SDL_AudioDriver, ptr @current_audio, i32 0, i32 11), ptr getelementptr inbounds nuw (%struct.SDL_AudioDriver, ptr @current_audio, i32 0, i32 10)
  %22 = call i32 @SDL_AddAtomicInt_REAL(ptr noundef %21, i32 noundef -1)
  br label %23

23:                                               ; preds = %16, %7
  %24 = load ptr, ptr getelementptr inbounds nuw (%struct.SDL_AudioDriver, ptr @current_audio, i32 0, i32 3), align 8
  call void @SDL_UnlockRWLock_REAL(ptr noundef %24)
  %25 = load ptr, ptr %2, align 8
  call void @DestroyPhysicalAudioDevice(ptr noundef %25)
  br label %26

26:                                               ; preds = %23, %1
  ret void
}

; Function Attrs: nounwind uwtable
define hidden void @RefPhysicalAudioDevice(ptr noundef %0) #0 {
  %2 = alloca ptr, align 8
  store ptr %0, ptr %2, align 8
  %3 = load ptr, ptr %2, align 8
  %4 = getelementptr inbounds nuw %struct.SDL_AudioDevice, ptr %3, i32 0, i32 2
  %5 = call i32 @SDL_AddAtomicInt_REAL(ptr noundef %4, i32 noundef 1)
  ret void
}

; Function Attrs: nounwind uwtable
define hidden ptr @SDL_GetCurrentAudioDriver_REAL() #0 {
  %1 = load ptr, ptr @current_audio, align 8
  ret ptr %1
}

; Function Attrs: nounwind uwtable
define internal ptr @ObtainLogicalAudioDevice(i32 noundef %0, ptr noundef %1) #0 {
  %3 = alloca ptr, align 8
  %4 = alloca i32, align 4
  %5 = alloca ptr, align 8
  %6 = alloca ptr, align 8
  %7 = alloca ptr, align 8
  %8 = alloca i8, align 1
  %9 = alloca ptr, align 8
  %10 = alloca i32, align 4
  store i32 %0, ptr %4, align 4
  store ptr %1, ptr %5, align 8
  br label %11

11:                                               ; preds = %2
  br label %12

12:                                               ; preds = %11
  %13 = call ptr @SDL_GetCurrentAudioDriver_REAL()
  %14 = icmp ne ptr %13, null
  br i1 %14, label %18, label %15

15:                                               ; preds = %12
  %16 = call zeroext i1 (ptr, ...) @SDL_SetError_REAL(ptr noundef @.str.10)
  %17 = load ptr, ptr %5, align 8
  store ptr null, ptr %17, align 8
  store ptr null, ptr %3, align 8
  br label %84

18:                                               ; preds = %12
  call void @llvm.lifetime.start.p0(i64 8, ptr %6) #6
  store ptr null, ptr %6, align 8
  call void @llvm.lifetime.start.p0(i64 8, ptr %7) #6
  store ptr null, ptr %7, align 8
  call void @llvm.lifetime.start.p0(i64 1, ptr %8) #6
  %19 = load i32, ptr %4, align 4
  %20 = and i32 %19, 2
  %21 = icmp ne i32 %20, 0
  %22 = xor i1 %21, true
  %23 = zext i1 %22 to i8
  store i8 %23, ptr %8, align 1
  %24 = load i8, ptr %8, align 1, !range !5, !noundef !6
  %25 = trunc i8 %24 to i1
  br i1 %25, label %26, label %75

26:                                               ; preds = %18
  %27 = load ptr, ptr getelementptr inbounds nuw (%struct.SDL_AudioDriver, ptr @current_audio, i32 0, i32 3), align 8
  call void @SDL_LockRWLockForReading_REAL(ptr noundef %27)
  %28 = load ptr, ptr getelementptr inbounds nuw (%struct.SDL_AudioDriver, ptr @current_audio, i32 0, i32 4), align 8
  %29 = load i32, ptr %4, align 4
  %30 = zext i32 %29 to i64
  %31 = inttoptr i64 %30 to ptr
  %32 = call zeroext i1 @SDL_FindInHashTable(ptr noundef %28, ptr noundef %31, ptr noundef %7)
  %33 = load ptr, ptr %7, align 8
  %34 = icmp ne ptr %33, null
  br i1 %34, label %35, label %46

35:                                               ; preds = %26
  br label %36

36:                                               ; preds = %35
  br label %37

37:                                               ; preds = %36
  br label %38

38:                                               ; preds = %37
  %39 = load ptr, ptr %7, align 8
  %40 = getelementptr inbounds nuw %struct.SDL_LogicalAudioDevice, ptr %39, i32 0, i32 1
  %41 = load ptr, ptr %40, align 8
  store ptr %41, ptr %6, align 8
  br label %42

42:                                               ; preds = %38
  br label %43

43:                                               ; preds = %42
  br label %44

44:                                               ; preds = %43
  %45 = load ptr, ptr %6, align 8
  call void @RefPhysicalAudioDevice(ptr noundef %45)
  br label %46

46:                                               ; preds = %44, %26
  %47 = load ptr, ptr getelementptr inbounds nuw (%struct.SDL_AudioDriver, ptr @current_audio, i32 0, i32 3), align 8
  call void @SDL_UnlockRWLock_REAL(ptr noundef %47)
  %48 = load ptr, ptr %7, align 8
  %49 = icmp ne ptr %48, null
  br i1 %49, label %50, label %74

50:                                               ; preds = %46
  br label %51

51:                                               ; preds = %72, %50
  br label %52

52:                                               ; preds = %51
  %53 = load ptr, ptr %6, align 8
  %54 = getelementptr inbounds nuw %struct.SDL_AudioDevice, ptr %53, i32 0, i32 0
  %55 = load ptr, ptr %54, align 8
  call void @SDL_LockMutex_REAL(ptr noundef %55)
  call void @llvm.lifetime.start.p0(i64 8, ptr %9) #6
  %56 = load ptr, ptr %7, align 8
  %57 = getelementptr inbounds nuw %struct.SDL_LogicalAudioDevice, ptr %56, i32 0, i32 1
  %58 = call ptr @SDL_GetAtomicPointer_REAL(ptr noundef %57)
  store ptr %58, ptr %9, align 8
  %59 = load ptr, ptr %6, align 8
  %60 = load ptr, ptr %9, align 8
  %61 = icmp eq ptr %59, %60
  br i1 %61, label %62, label %63

62:                                               ; preds = %52
  store i32 9, ptr %10, align 4
  br label %70

63:                                               ; preds = %52
  %64 = load ptr, ptr %9, align 8
  call void @RefPhysicalAudioDevice(ptr noundef %64)
  %65 = load ptr, ptr %6, align 8
  %66 = getelementptr inbounds nuw %struct.SDL_AudioDevice, ptr %65, i32 0, i32 0
  %67 = load ptr, ptr %66, align 8
  call void @SDL_UnlockMutex_REAL(ptr noundef %67)
  %68 = load ptr, ptr %6, align 8
  call void @UnrefPhysicalAudioDevice(ptr noundef %68)
  %69 = load ptr, ptr %9, align 8
  store ptr %69, ptr %6, align 8
  store i32 0, ptr %10, align 4
  br label %70

70:                                               ; preds = %63, %62
  call void @llvm.lifetime.end.p0(i64 8, ptr %9) #6
  %71 = load i32, ptr %10, align 4
  switch i32 %71, label %86 [
    i32 0, label %72
    i32 9, label %73
  ]

72:                                               ; preds = %70
  br label %51

73:                                               ; preds = %70
  br label %74

74:                                               ; preds = %73, %46
  br label %75

75:                                               ; preds = %74, %18
  %76 = load ptr, ptr %7, align 8
  %77 = icmp ne ptr %76, null
  br i1 %77, label %80, label %78

78:                                               ; preds = %75
  %79 = call zeroext i1 (ptr, ...) @SDL_SetError_REAL(ptr noundef @.str.12)
  br label %80

80:                                               ; preds = %78, %75
  %81 = load ptr, ptr %6, align 8
  %82 = load ptr, ptr %5, align 8
  store ptr %81, ptr %82, align 8
  %83 = load ptr, ptr %7, align 8
  store ptr %83, ptr %3, align 8
  store i32 1, ptr %10, align 4
  call void @llvm.lifetime.end.p0(i64 1, ptr %8) #6
  call void @llvm.lifetime.end.p0(i64 8, ptr %7) #6
  call void @llvm.lifetime.end.p0(i64 8, ptr %6) #6
  br label %84

84:                                               ; preds = %80, %15
  %85 = load ptr, ptr %3, align 8
  ret ptr %85

86:                                               ; preds = %70
  unreachable
}