; Function Attrs: nounwind uwtable
define internal fastcc ptr @ObtainLogicalAudioDevice(i32 noundef %0, ptr noundef nonnull writeonly captures(none) %1) unnamed_addr #0 {
  %3 = alloca ptr, align 8
  %4 = load ptr, ptr @current_audio, align 8
  %.not = icmp eq ptr %4, null
  br i1 %.not, label %5, label %7

5:                                                ; preds = %2
  %6 = tail call zeroext i1 (ptr, ...) @SDL_SetError_REAL(ptr noundef nonnull @.str.10) #14
  store ptr null, ptr %1, align 8
  br label %60

7:                                                ; preds = %2
  call void @llvm.lifetime.start.p0(i64 8, ptr nonnull %3) #14
  store ptr null, ptr %3, align 8
  %8 = and i32 %0, 2
  %.not19 = icmp eq i32 %8, 0
  br i1 %.not19, label %9, label %.thread

9:                                                ; preds = %7
  %10 = load ptr, ptr getelementptr inbounds nuw (i8, ptr @current_audio, i64 136), align 8
  tail call void @SDL_LockRWLockForReading_REAL(ptr noundef %10) #14
  %11 = load ptr, ptr getelementptr inbounds nuw (i8, ptr @current_audio, i64 144), align 8
  %12 = zext i32 %0 to i64
  %13 = inttoptr i64 %12 to ptr
  %14 = call zeroext i1 @SDL_FindInHashTable(ptr noundef %11, ptr noundef %13, ptr noundef nonnull %3) #14
  %15 = load ptr, ptr %3, align 8
  %.not20 = icmp eq ptr %15, null
  br i1 %.not20, label %21, label %16

16:                                               ; preds = %9
  %17 = getelementptr inbounds nuw i8, ptr %15, i64 8
  %18 = load ptr, ptr %17, align 8
  %19 = getelementptr inbounds nuw i8, ptr %18, i64 16
  %20 = call i32 @SDL_AddAtomicInt_REAL(ptr noundef nonnull %19, i32 noundef 1) #14
  br label %21

21:                                               ; preds = %16, %9
  %.1 = phi ptr [ %18, %16 ], [ null, %9 ]
  %22 = load ptr, ptr getelementptr inbounds nuw (i8, ptr @current_audio, i64 136), align 8
  call void @SDL_UnlockRWLock_REAL(ptr noundef %22) #14
  %23 = load ptr, ptr %3, align 8
  %.not21 = icmp eq ptr %23, null
  br i1 %.not21, label %.thread, label %.preheader

.preheader:                                       ; preds = %21
  %24 = load ptr, ptr %.1, align 8
  call void @SDL_LockMutex_REAL(ptr noundef %24) #14
  %25 = load ptr, ptr %3, align 8
  %26 = getelementptr inbounds nuw i8, ptr %25, i64 8
  %27 = call ptr @SDL_GetAtomicPointer_REAL(ptr noundef nonnull %26) #14
  %28 = icmp eq ptr %.1, %27
  br i1 %28, label %._crit_edge, label %.lr.ph

.lr.ph:                                           ; preds = %.preheader, %UnrefPhysicalAudioDevice.exit
  %29 = phi ptr [ %55, %UnrefPhysicalAudioDevice.exit ], [ %27, %.preheader ]
  %.230 = phi ptr [ %29, %UnrefPhysicalAudioDevice.exit ], [ %.1, %.preheader ]
  %30 = getelementptr inbounds nuw i8, ptr %29, i64 16
  %31 = call i32 @SDL_AddAtomicInt_REAL(ptr noundef nonnull %30, i32 noundef 1) #14
  %32 = load ptr, ptr %.230, align 8
  call void @SDL_UnlockMutex_REAL(ptr noundef %32) #14
  %33 = getelementptr inbounds nuw i8, ptr %.230, i64 16
  %34 = call i32 @SDL_AddAtomicInt_REAL(ptr noundef nonnull %33, i32 noundef -1) #14
  %35 = icmp eq i32 %34, 1
  br i1 %35, label %36, label %UnrefPhysicalAudioDevice.exit

36:                                               ; preds = %.lr.ph
  %37 = load ptr, ptr getelementptr inbounds nuw (i8, ptr @current_audio, i64 136), align 8
  call void @SDL_LockRWLockForWriting_REAL(ptr noundef %37) #14
  %38 = load ptr, ptr getelementptr inbounds nuw (i8, ptr @current_audio, i64 144), align 8
  %39 = getelementptr inbounds nuw i8, ptr %.230, i64 80
  %40 = load i32, ptr %39, align 8
  %41 = zext i32 %40 to i64
  %42 = inttoptr i64 %41 to ptr
  %43 = call zeroext i1 @SDL_RemoveFromHashTable(ptr noundef %38, ptr noundef %42) #14
  br i1 %43, label %44, label %50

44:                                               ; preds = %36
  %45 = getelementptr inbounds nuw i8, ptr %.230, i64 148
  %46 = load i8, ptr %45, align 4, !range !6, !noundef !7
  %47 = trunc nuw i8 %46 to i1
  %48 = select i1 %47, ptr getelementptr inbounds nuw (i8, ptr @current_audio, i64 196), ptr getelementptr inbounds nuw (i8, ptr @current_audio, i64 192)
  %49 = call i32 @SDL_AddAtomicInt_REAL(ptr noundef nonnull %48, i32 noundef -1) #14
  br label %50

50:                                               ; preds = %44, %36
  %51 = load ptr, ptr getelementptr inbounds nuw (i8, ptr @current_audio, i64 136), align 8
  call void @SDL_UnlockRWLock_REAL(ptr noundef %51) #14
  call fastcc void @DestroyPhysicalAudioDevice(ptr noundef nonnull %.230)
  br label %UnrefPhysicalAudioDevice.exit

UnrefPhysicalAudioDevice.exit:                    ; preds = %50, %.lr.ph
  %52 = load ptr, ptr %29, align 8
  call void @SDL_LockMutex_REAL(ptr noundef %52) #14
  %53 = load ptr, ptr %3, align 8
  %54 = getelementptr inbounds nuw i8, ptr %53, i64 8
  %55 = call ptr @SDL_GetAtomicPointer_REAL(ptr noundef nonnull %54) #14
  %56 = icmp eq ptr %29, %55
  br i1 %56, label %._crit_edge, label %.lr.ph

._crit_edge:                                      ; preds = %UnrefPhysicalAudioDevice.exit, %.preheader
  %.2.lcssa = phi ptr [ %.1, %.preheader ], [ %29, %UnrefPhysicalAudioDevice.exit ]
  %.pr = load ptr, ptr %3, align 8
  %.not22 = icmp eq ptr %.pr, null
  br i1 %.not22, label %.thread, label %58

.thread:                                          ; preds = %7, %21, %._crit_edge
  %.01629 = phi ptr [ %.2.lcssa, %._crit_edge ], [ null, %7 ], [ %.1, %21 ]
  %57 = call zeroext i1 (ptr, ...) @SDL_SetError_REAL(ptr noundef nonnull @.str.12) #14
  %.pre = load ptr, ptr %3, align 8
  br label %58

58:                                               ; preds = %.thread, %._crit_edge
  %59 = phi ptr [ %.pre, %.thread ], [ %.pr, %._crit_edge ]
  %.01628 = phi ptr [ %.01629, %.thread ], [ %.2.lcssa, %._crit_edge ]
  store ptr %.01628, ptr %1, align 8
  call void @llvm.lifetime.end.p0(i64 8, ptr nonnull %3) #14
  br label %60

60:                                               ; preds = %58, %5
  %.015 = phi ptr [ %59, %58 ], [ null, %5 ]
  ret ptr %.015
}